; ModuleID = '29/1506.c'
source_filename = "29/1506.c"
target datalayout = "e-m:e-p270:32:32-p271:32:32-p272:64:64-i64:64-f80:128-n8:16:32:64-S128"
target triple = "x86_64-pc-linux-gnu"

@.str = private unnamed_addr constant [3 x i8] c"%d\00", align 1
@.str.1 = private unnamed_addr constant [6 x i8] c"%.3f\0A\00", align 1

; Function Attrs: noinline nounwind uwtable
define dso_local i32 @main() #0 {
  %1 = alloca i32, align 4
  %2 = alloca i32, align 4
  %3 = alloca i32, align 4
  %4 = alloca i32, align 4
  %5 = alloca i32, align 4
  %6 = alloca i32, align 4
  %7 = alloca float, align 4
  %8 = alloca [100 x float], align 16
  store i32 0, i32* %1, align 4
  %9 = call i32 (i8*, ...) @__isoc99_scanf(i8* getelementptr inbounds ([3 x i8], [3 x i8]* @.str, i64 0, i64 0), i32* %2)
  store i32 0, i32* %3, align 4
  br label %10

10:                                               ; preds = %42, %0
  %11 = load i32, i32* %3, align 4
  %12 = load i32, i32* %2, align 4
  %13 = icmp slt i32 %11, %12
  br i1 %13, label %14, label %45

14:                                               ; preds = %10
  %15 = call i32 (i8*, ...) @__isoc99_scanf(i8* getelementptr inbounds ([3 x i8], [3 x i8]* @.str, i64 0, i64 0), i32* %6)
  store i32 0, i32* %4, align 4
  br label %16

16:                                               ; preds = %34, %14
  %17 = load i32, i32* %4, align 4
  %18 = load i32, i32* %6, align 4
  %19 = icmp slt i32 %17, %18
  br i1 %19, label %20, label %37

20:                                               ; preds = %16
  %21 = load float, float* %7, align 4
  %22 = fpext float %21 to double
  %23 = load i32, i32* %4, align 4
  %24 = add nsw i32 %23, 1
  %25 = call i32 @up(i32 %24)
  %26 = sitofp i32 %25 to double
  %27 = load i32, i32* %4, align 4
  %28 = add nsw i32 %27, 1
  %29 = call i32 @down(i32 %28)
  %30 = sitofp i32 %29 to double
  %31 = fdiv double %26, %30
  %32 = fadd double %22, %31
  %33 = fptrunc double %32 to float
  store float %33, float* %7, align 4
  br label %34

34:                                               ; preds = %20
  %35 = load i32, i32* %4, align 4
  %36 = add nsw i32 %35, 1
  store i32 %36, i32* %4, align 4
  br label %16

37:                                               ; preds = %16
  %38 = load float, float* %7, align 4
  %39 = load i32, i32* %3, align 4
  %40 = sext i32 %39 to i64
  %41 = getelementptr inbounds [100 x float], [100 x float]* %8, i64 0, i64 %40
  store float %38, float* %41, align 4
  store float 0.000000e+00, float* %7, align 4
  br label %42

42:                                               ; preds = %37
  %43 = load i32, i32* %3, align 4
  %44 = add nsw i32 %43, 1
  store i32 %44, i32* %3, align 4
  br label %10

45:                                               ; preds = %10
  store i32 0, i32* %3, align 4
  br label %46

46:                                               ; preds = %57, %45
  %47 = load i32, i32* %3, align 4
  %48 = load i32, i32* %2, align 4
  %49 = icmp slt i32 %47, %48
  br i1 %49, label %50, label %60

50:                                               ; preds = %46
  %51 = load i32, i32* %3, align 4
  %52 = sext i32 %51 to i64
  %53 = getelementptr inbounds [100 x float], [100 x float]* %8, i64 0, i64 %52
  %54 = load float, float* %53, align 4
  %55 = fpext float %54 to double
  %56 = call i32 (i8*, ...) @printf(i8* getelementptr inbounds ([6 x i8], [6 x i8]* @.str.1, i64 0, i64 0), double %55)
  br label %57

57:                                               ; preds = %50
  %58 = load i32, i32* %3, align 4
  %59 = add nsw i32 %58, 1
  store i32 %59, i32* %3, align 4
  br label %46

60:                                               ; preds = %46
  %61 = load i32, i32* %1, align 4
  ret i32 %61
}

declare dso_local i32 @__isoc99_scanf(i8*, ...) #1

; Function Attrs: noinline nounwind uwtable
define dso_local i32 @up(i32 %0) #0 {
  %2 = alloca i32, align 4
  %3 = alloca i32, align 4
  store i32 %0, i32* %3, align 4
  %4 = load i32, i32* %3, align 4
  %5 = icmp eq i32 %4, 1
  br i1 %5, label %6, label %7

6:                                                ; preds = %1
  store i32 2, i32* %2, align 4
  br label %19

7:                                                ; preds = %1
  %8 = load i32, i32* %3, align 4
  %9 = icmp eq i32 %8, 2
  br i1 %9, label %10, label %11

10:                                               ; preds = %7
  store i32 3, i32* %2, align 4
  br label %19

11:                                               ; preds = %7
  %12 = load i32, i32* %3, align 4
  %13 = sub nsw i32 %12, 1
  %14 = call i32 @up(i32 %13)
  %15 = load i32, i32* %3, align 4
  %16 = sub nsw i32 %15, 2
  %17 = call i32 @up(i32 %16)
  %18 = add nsw i32 %14, %17
  store i32 %18, i32* %2, align 4
  br label %19

19:                                               ; preds = %11, %10, %6
  %20 = load i32, i32* %2, align 4
  ret i32 %20
}

; Function Attrs: noinline nounwind uwtable
define dso_local i32 @down(i32 %0) #0 {
  %2 = alloca i32, align 4
  %3 = alloca i32, align 4
  store i32 %0, i32* %3, align 4
  %4 = load i32, i32* %3, align 4
  %5 = icmp eq i32 %4, 1
  br i1 %5, label %6, label %7

6:                                                ; preds = %1
  store i32 1, i32* %2, align 4
  br label %19

7:                                                ; preds = %1
  %8 = load i32, i32* %3, align 4
  %9 = icmp eq i32 %8, 2
  br i1 %9, label %10, label %11

10:                                               ; preds = %7
  store i32 2, i32* %2, align 4
  br label %19

11:                                               ; preds = %7
  %12 = load i32, i32* %3, align 4
  %13 = sub nsw i32 %12, 1
  %14 = call i32 @down(i32 %13)
  %15 = load i32, i32* %3, align 4
  %16 = sub nsw i32 %15, 2
  %17 = call i32 @down(i32 %16)
  %18 = add nsw i32 %14, %17
  store i32 %18, i32* %2, align 4
  br label %19

19:                                               ; preds = %11, %10, %6
  %20 = load i32, i32* %2, align 4
  ret i32 %20
}

declare dso_local i32 @printf(i8*, ...) #1


!llvm.module.flags = !{!0}
!llvm.ident = !{!1}

!0 = !{i32 1, !"wchar_size", i32 4}
!1 = !{!"clang version 10.0.0-4ubuntu1 "}
