; ModuleID = 'source-C-CXX/28/1506.c'
source_filename = "source-C-CXX/28/1506.c"
target datalayout = "e-m:e-p270:32:32-p271:32:32-p272:64:64-i64:64-f80:128-n8:16:32:64-S128"
target triple = "x86_64-pc-linux-gnu"

@.str = private unnamed_addr constant [3 x i8] c"%d\00", align 1
@.str.1 = private unnamed_addr constant [6 x i8] c"%.3f\0A\00", align 1

; Function Attrs: nofree nounwind sspstrong uwtable
define dso_local i32 @main() local_unnamed_addr #0 {
  %1 = alloca i32, align 4
  %2 = alloca i32, align 4
  %3 = alloca [100 x float], align 16
  %4 = bitcast i32* %1 to i8*
  call void @llvm.lifetime.start.p0i8(i64 4, i8* nonnull %4) #4
  %5 = bitcast i32* %2 to i8*
  call void @llvm.lifetime.start.p0i8(i64 4, i8* nonnull %5) #4
  %6 = bitcast [100 x float]* %3 to i8*
  call void @llvm.lifetime.start.p0i8(i64 400, i8* nonnull %6) #4
  %7 = call i32 (i8*, ...) @__isoc99_scanf(i8* getelementptr inbounds ([3 x i8], [3 x i8]* @.str, i64 0, i64 0), i32* nonnull %1)
  %8 = load i32, i32* %1, align 4, !tbaa !5
  %9 = icmp sgt i32 %8, 0
  br i1 %9, label %12, label %47

10:                                               ; preds = %30
  %11 = icmp sgt i32 %34, 0
  br i1 %11, label %37, label %47

12:                                               ; preds = %0, %30
  %13 = phi i64 [ %33, %30 ], [ 0, %0 ]
  %14 = call i32 (i8*, ...) @__isoc99_scanf(i8* getelementptr inbounds ([3 x i8], [3 x i8]* @.str, i64 0, i64 0), i32* nonnull %2)
  %15 = load i32, i32* %2, align 4, !tbaa !5
  %16 = icmp sgt i32 %15, 0
  br i1 %16, label %17, label %30

17:                                               ; preds = %12, %17
  %18 = phi float [ %28, %17 ], [ 0.000000e+00, %12 ]
  %19 = phi i32 [ %21, %17 ], [ 0, %12 ]
  %20 = fpext float %18 to double
  %21 = add nuw nsw i32 %19, 1
  %22 = call i32 @up(i32 %21)
  %23 = sitofp i32 %22 to double
  %24 = call i32 @down(i32 %21)
  %25 = sitofp i32 %24 to double
  %26 = fdiv double %23, %25
  %27 = fadd double %26, %20
  %28 = fptrunc double %27 to float
  %29 = icmp eq i32 %21, %15
  br i1 %29, label %30, label %17, !llvm.loop !9

30:                                               ; preds = %17, %12
  %31 = phi float [ 0.000000e+00, %12 ], [ %28, %17 ]
  %32 = getelementptr inbounds [100 x float], [100 x float]* %3, i64 0, i64 %13
  store float %31, float* %32, align 4, !tbaa !11
  %33 = add nuw nsw i64 %13, 1
  %34 = load i32, i32* %1, align 4, !tbaa !5
  %35 = sext i32 %34 to i64
  %36 = icmp slt i64 %33, %35
  br i1 %36, label %12, label %10, !llvm.loop !13

37:                                               ; preds = %10, %37
  %38 = phi i64 [ %43, %37 ], [ 0, %10 ]
  %39 = getelementptr inbounds [100 x float], [100 x float]* %3, i64 0, i64 %38
  %40 = load float, float* %39, align 4, !tbaa !11
  %41 = fpext float %40 to double
  %42 = call i32 (i8*, ...) @printf(i8* nonnull dereferenceable(1) getelementptr inbounds ([6 x i8], [6 x i8]* @.str.1, i64 0, i64 0), double %41)
  %43 = add nuw nsw i64 %38, 1
  %44 = load i32, i32* %1, align 4, !tbaa !5
  %45 = sext i32 %44 to i64
  %46 = icmp slt i64 %43, %45
  br i1 %46, label %37, label %47, !llvm.loop !14

47:                                               ; preds = %37, %0, %10
  call void @llvm.lifetime.end.p0i8(i64 400, i8* nonnull %6) #4
  call void @llvm.lifetime.end.p0i8(i64 4, i8* nonnull %5) #4
  call void @llvm.lifetime.end.p0i8(i64 4, i8* nonnull %4) #4
  ret i32 0
}

; Function Attrs: argmemonly mustprogress nofree nosync nounwind willreturn
declare void @llvm.lifetime.start.p0i8(i64 immarg, i8* nocapture) #1

; Function Attrs: nofree nounwind
declare noundef i32 @__isoc99_scanf(i8* nocapture noundef readonly, ...) local_unnamed_addr #2

; Function Attrs: nofree nosync nounwind readnone sspstrong uwtable
define dso_local i32 @up(i32 %0) local_unnamed_addr #3 {
  br label %2

2:                                                ; preds = %5, %1
  %3 = phi i32 [ 0, %1 ], [ %9, %5 ]
  %4 = phi i32 [ %0, %1 ], [ %8, %5 ]
  switch i32 %4, label %5 [
    i32 1, label %10
    i32 2, label %11
  ]

5:                                                ; preds = %2
  %6 = add nsw i32 %4, -1
  %7 = tail call i32 @up(i32 %6)
  %8 = add nsw i32 %4, -2
  %9 = add nsw i32 %7, %3
  br label %2

10:                                               ; preds = %2
  br label %11

11:                                               ; preds = %2, %10
  %12 = phi i32 [ 2, %10 ], [ 3, %2 ]
  %13 = add nsw i32 %12, %3
  ret i32 %13
}

; Function Attrs: nofree nosync nounwind readnone sspstrong uwtable
define dso_local i32 @down(i32 %0) local_unnamed_addr #3 {
  br label %2

2:                                                ; preds = %7, %1
  %3 = phi i32 [ 0, %1 ], [ %11, %7 ]
  %4 = phi i32 [ %0, %1 ], [ %10, %7 ]
  %5 = add i32 %4, -1
  %6 = icmp ult i32 %5, 2
  br i1 %6, label %12, label %7

7:                                                ; preds = %2
  %8 = add nsw i32 %4, -1
  %9 = tail call i32 @down(i32 %8)
  %10 = add nsw i32 %4, -2
  %11 = add nsw i32 %9, %3
  br label %2

12:                                               ; preds = %2
  %13 = add nsw i32 %4, %3
  ret i32 %13
}

; Function Attrs: nofree nounwind
declare noundef i32 @printf(i8* nocapture noundef readonly, ...) local_unnamed_addr #2

; Function Attrs: argmemonly mustprogress nofree nosync nounwind willreturn
declare void @llvm.lifetime.end.p0i8(i64 immarg, i8* nocapture) #1


!llvm.module.flags = !{!0, !1, !2, !3}
!llvm.ident = !{!4}

!0 = !{i32 1, !"wchar_size", i32 4}
!1 = !{i32 7, !"PIC Level", i32 2}
!2 = !{i32 7, !"PIE Level", i32 2}
!3 = !{i32 7, !"uwtable", i32 1}
!4 = !{!"clang version 13.0.0"}
!5 = !{!6, !6, i64 0}
!6 = !{!"int", !7, i64 0}
!7 = !{!"omnipotent char", !8, i64 0}
!8 = !{!"Simple C/C++ TBAA"}
!9 = distinct !{!9, !10}
!10 = !{!"llvm.loop.mustprogress"}
!11 = !{!12, !12, i64 0}
!12 = !{!"float", !7, i64 0}
!13 = distinct !{!13, !10}
!14 = distinct !{!14, !10}
